target datalayout = "e-m:e-p270:32:32-p271:32:32-p272:64:64-i64:64-i128:128-f80:128-n8:16:32:64-S128"
target triple = "x86_64-pc-linux-gnu"

%"union.pxrInternal_v0_24__pxrReserved__::pxr_half::half::uif" = type { i32 }
%"class.pxrInternal_v0_24__pxrReserved__::pxr_half::half" = type { i16 }
%"class.pxrInternal_v0_24__pxrReserved__::GfVec3h" = type { [3 x %"class.pxrInternal_v0_24__pxrReserved__::pxr_half::half"] }
%"class.pxrInternal_v0_24__pxrReserved__::GfQuath" = type { %"class.pxrInternal_v0_24__pxrReserved__::GfVec3h", %"class.pxrInternal_v0_24__pxrReserved__::pxr_half::half" }

@_ZN32pxrInternal_v0_24__pxrReserved__8pxr_half4half8_toFloatE = external global [65536 x %"union.pxrInternal_v0_24__pxrReserved__::pxr_half::half::uif"], align 16

; Function Attrs: mustprogress nounwind uwtable
define linkonce_odr noundef nonnull align 2 dereferenceable(2) ptr @_ZNK32pxrInternal_v0_24__pxrReserved__7GfVec3hixEm(ptr noundef nonnull align 2 dereferenceable(6) %0, i64 noundef %1) #1 comdat align 2 {
  %3 = alloca ptr, align 8
  %4 = alloca i64, align 8
  store ptr %0, ptr %3, align 8
  store i64 %1, ptr %4, align 8
  %5 = load ptr, ptr %3, align 8
  %6 = getelementptr inbounds nuw %"class.pxrInternal_v0_24__pxrReserved__::GfVec3h", ptr %5, i32 0, i32 0
  %7 = load i64, ptr %4, align 8
  %8 = getelementptr inbounds [3 x %"class.pxrInternal_v0_24__pxrReserved__::pxr_half::half"], ptr %6, i64 0, i64 %7
  ret ptr %8
}

; Function Attrs: mustprogress nounwind uwtable
define linkonce_odr noundef zeroext i1 @_ZN32pxrInternal_v0_24__pxrReserved__9GfIsCloseEddd(double noundef %0, double noundef %1, double noundef %2) #1 comdat {
  %4 = alloca double, align 8
  %5 = alloca double, align 8
  %6 = alloca double, align 8
  store double %0, ptr %4, align 8
  store double %1, ptr %5, align 8
  store double %2, ptr %6, align 8
  %7 = load double, ptr %4, align 8
  %8 = load double, ptr %5, align 8
  %9 = fsub double %7, %8
  %10 = call double @llvm.fabs.f64(double %9)
  %11 = load double, ptr %6, align 8
  %12 = fcmp olt double %10, %11
  ret i1 %12
}

; Function Attrs: mustprogress nounwind uwtable
define linkonce_odr noundef float @_ZNK32pxrInternal_v0_24__pxrReserved__8pxr_half4halfcvfEv(ptr noundef nonnull align 2 dereferenceable(2) %0) #1 comdat align 2 {
  %2 = alloca ptr, align 8
  store ptr %0, ptr %2, align 8
  %3 = load ptr, ptr %2, align 8
  %4 = getelementptr inbounds nuw %"class.pxrInternal_v0_24__pxrReserved__::pxr_half::half", ptr %3, i32 0, i32 0
  %5 = load i16, ptr %4, align 2
  %6 = zext i16 %5 to i64
  %7 = getelementptr inbounds [65536 x %"union.pxrInternal_v0_24__pxrReserved__::pxr_half::half::uif"], ptr @_ZN32pxrInternal_v0_24__pxrReserved__8pxr_half4half8_toFloatE, i64 0, i64 %6
  %8 = load float, ptr %7, align 4
  ret float %8
}

; Function Attrs: mustprogress uwtable
define internal noundef zeroext i1 @_ZN32pxrInternal_v0_24__pxrReserved__L8_IsCloseINS_7GfVec3hETnPNSt9enable_ifIXsr9GfIsGfVecIT_EE5valueEvE4typeELPv0EEEbRKS3_S9_(ptr noundef nonnull align 2 dereferenceable(6) %0, ptr noundef nonnull align 2 dereferenceable(6) %1) #0 {
  %3 = alloca i1, align 1
  %4 = alloca ptr, align 8
  %5 = alloca ptr, align 8
  %6 = alloca i64, align 8
  store ptr %0, ptr %4, align 8
  store ptr %1, ptr %5, align 8
  store i64 0, ptr %6, align 8
  br label %7

7:                                                ; preds = %20, %2
  %8 = load i64, ptr %6, align 8
  %9 = icmp ult i64 %8, 3
  br i1 %9, label %10, label %23

10:                                               ; preds = %7
  %11 = load ptr, ptr %4, align 8
  %12 = load i64, ptr %6, align 8
  %13 = call noundef nonnull align 2 dereferenceable(2) ptr @_ZNK32pxrInternal_v0_24__pxrReserved__7GfVec3hixEm(ptr noundef nonnull align 2 dereferenceable(6) %11, i64 noundef %12)
  %14 = load ptr, ptr %5, align 8
  %15 = load i64, ptr %6, align 8
  %16 = call noundef nonnull align 2 dereferenceable(2) ptr @_ZNK32pxrInternal_v0_24__pxrReserved__7GfVec3hixEm(ptr noundef nonnull align 2 dereferenceable(6) %14, i64 noundef %15)
  %17 = call noundef zeroext i1 @_ZN32pxrInternal_v0_24__pxrReserved__L8_IsCloseERKNS_8pxr_half4halfES3_(ptr noundef nonnull align 2 dereferenceable(2) %13, ptr noundef nonnull align 2 dereferenceable(2) %16)
  br i1 %17, label %19, label %18

18:                                               ; preds = %10
  store i1 false, ptr %3, align 1
  br label %24

19:                                               ; preds = %10
  br label %20

20:                                               ; preds = %19
  %21 = load i64, ptr %6, align 8
  %22 = add i64 %21, 1
  store i64 %22, ptr %6, align 8
  br label %7, !llvm.loop !31

23:                                               ; preds = %7
  store i1 true, ptr %3, align 1
  br label %24

24:                                               ; preds = %23, %18
  %25 = load i1, ptr %3, align 1
  ret i1 %25
}

; Function Attrs: mustprogress nounwind uwtable
define linkonce_odr noundef nonnull align 2 dereferenceable(6) ptr @_ZNK32pxrInternal_v0_24__pxrReserved__7GfQuath12GetImaginaryEv(ptr noundef nonnull align 2 dereferenceable(8) %0) #1 comdat align 2 {
  %2 = alloca ptr, align 8
  store ptr %0, ptr %2, align 8
  %3 = load ptr, ptr %2, align 8
  %4 = getelementptr inbounds nuw %"class.pxrInternal_v0_24__pxrReserved__::GfQuath", ptr %3, i32 0, i32 0
  ret ptr %4
}

; Function Attrs: mustprogress uwtable
define internal noundef zeroext i1 @_ZN32pxrInternal_v0_24__pxrReserved__L8_IsCloseERKNS_8pxr_half4halfES3_(ptr noundef nonnull align 2 dereferenceable(2) %0, ptr noundef nonnull align 2 dereferenceable(2) %1) #0 {
  %3 = alloca ptr, align 8
  %4 = alloca ptr, align 8
  store ptr %0, ptr %3, align 8
  store ptr %1, ptr %4, align 8
  %5 = load ptr, ptr %3, align 8
  %6 = call noundef float @_ZNK32pxrInternal_v0_24__pxrReserved__8pxr_half4halfcvfEv(ptr noundef nonnull align 2 dereferenceable(2) %5)
  %7 = fpext float %6 to double
  %8 = load ptr, ptr %4, align 8
  %9 = call noundef float @_ZNK32pxrInternal_v0_24__pxrReserved__8pxr_half4halfcvfEv(ptr noundef nonnull align 2 dereferenceable(2) %8)
  %10 = fpext float %9 to double
  %11 = call noundef zeroext i1 @_ZN32pxrInternal_v0_24__pxrReserved__9GfIsCloseEddd(double noundef %7, double noundef %10, double noundef 1.000000e-02)
  ret i1 %11
}

; Function Attrs: mustprogress nounwind uwtable
define linkonce_odr i16 @_ZNK32pxrInternal_v0_24__pxrReserved__7GfQuath7GetRealEv(ptr noundef nonnull align 2 dereferenceable(8) %0) #1 comdat align 2 {
  %2 = alloca %"class.pxrInternal_v0_24__pxrReserved__::pxr_half::half", align 2
  %3 = alloca ptr, align 8
  store ptr %0, ptr %3, align 8
  %4 = load ptr, ptr %3, align 8
  %5 = getelementptr inbounds nuw %"class.pxrInternal_v0_24__pxrReserved__::GfQuath", ptr %4, i32 0, i32 1
  call void @llvm.memcpy.p0.p0.i64(ptr align 2 %2, ptr align 2 %5, i64 2, i1 false)
  %6 = getelementptr inbounds nuw %"class.pxrInternal_v0_24__pxrReserved__::pxr_half::half", ptr %2, i32 0, i32 0
  %7 = load i16, ptr %6, align 2
  ret i16 %7
}

; Function Attrs: mustprogress uwtable
define internal noundef zeroext i1 @_ZN32pxrInternal_v0_24__pxrReserved__L8_IsCloseINS_7GfQuathETnPNSt9enable_ifIXsr10GfIsGfQuatIT_EE5valueEvE4typeELPv0EEEbRKS3_S9_(ptr noundef nonnull align 2 dereferenceable(8) %0, ptr noundef nonnull align 2 dereferenceable(8) %1) #0 {
  %3 = alloca i1, align 1
  %4 = alloca ptr, align 8
  %5 = alloca ptr, align 8
  %6 = alloca %"class.pxrInternal_v0_24__pxrReserved__::pxr_half::half", align 2
  %7 = alloca %"class.pxrInternal_v0_24__pxrReserved__::pxr_half::half", align 2
  store ptr %0, ptr %4, align 8
  store ptr %1, ptr %5, align 8
  %8 = load ptr, ptr %4, align 8
  %9 = call i16 @_ZNK32pxrInternal_v0_24__pxrReserved__7GfQuath7GetRealEv(ptr noundef nonnull align 2 dereferenceable(8) %8)
  %10 = getelementptr inbounds nuw %"class.pxrInternal_v0_24__pxrReserved__::pxr_half::half", ptr %6, i32 0, i32 0
  store i16 %9, ptr %10, align 2
  %11 = load ptr, ptr %5, align 8
  %12 = call i16 @_ZNK32pxrInternal_v0_24__pxrReserved__7GfQuath7GetRealEv(ptr noundef nonnull align 2 dereferenceable(8) %11)
  %13 = getelementptr inbounds nuw %"class.pxrInternal_v0_24__pxrReserved__::pxr_half::half", ptr %7, i32 0, i32 0
  store i16 %12, ptr %13, align 2
  %14 = call noundef zeroext i1 @_ZN32pxrInternal_v0_24__pxrReserved__L8_IsCloseERKNS_8pxr_half4halfES3_(ptr noundef nonnull align 2 dereferenceable(2) %6, ptr noundef nonnull align 2 dereferenceable(2) %7)
  %15 = xor i1 %14, true
  br i1 %15, label %16, label %17

16:                                               ; preds = %2
  store i1 false, ptr %3, align 1
  br label %23

17:                                               ; preds = %2
  %18 = load ptr, ptr %4, align 8
  %19 = call noundef nonnull align 2 dereferenceable(6) ptr @_ZNK32pxrInternal_v0_24__pxrReserved__7GfQuath12GetImaginaryEv(ptr noundef nonnull align 2 dereferenceable(8) %18)
  %20 = load ptr, ptr %5, align 8
  %21 = call noundef nonnull align 2 dereferenceable(6) ptr @_ZNK32pxrInternal_v0_24__pxrReserved__7GfQuath12GetImaginaryEv(ptr noundef nonnull align 2 dereferenceable(8) %20)
  %22 = call noundef zeroext i1 @_ZN32pxrInternal_v0_24__pxrReserved__L8_IsCloseINS_7GfVec3hETnPNSt9enable_ifIXsr9GfIsGfVecIT_EE5valueEvE4typeELPv0EEEbRKS3_S9_(ptr noundef nonnull align 2 dereferenceable(6) %19, ptr noundef nonnull align 2 dereferenceable(6) %21)
  store i1 %22, ptr %3, align 1
  br label %23

23:                                               ; preds = %17, %16
  %24 = load i1, ptr %3, align 1
  ret i1 %24
}