; Function Attrs: mustprogress nofree norecurse nosync nounwind willreturn memory(read, inaccessiblemem: none) uwtable
define internal fastcc noundef zeroext i1 @_ZN32pxrInternal_v0_24__pxrReserved__L8_IsCloseINS_7GfQuathETnPNSt9enable_ifIXsr10GfIsGfQuatIT_EE5valueEvE4typeELPv0EEEbRKS3_S9_(ptr noundef nonnull readonly align 2 captures(none) dereferenceable(8) %0, ptr noundef nonnull readonly align 2 captures(none) dereferenceable(8) %1) unnamed_addr #2 {
  %3 = getelementptr inbounds nuw i8, ptr %0, i64 6
  %.sroa.0.0.copyload.i = load i16, ptr %3, align 2
  %4 = getelementptr inbounds nuw i8, ptr %1, i64 6
  %.sroa.0.0.copyload.i6 = load i16, ptr %4, align 2
  %5 = zext i16 %.sroa.0.0.copyload.i to i64
  %6 = getelementptr inbounds nuw [65536 x %"union.pxrInternal_v0_24__pxrReserved__::pxr_half::half::uif"], ptr @_ZN32pxrInternal_v0_24__pxrReserved__8pxr_half4half8_toFloatE, i64 0, i64 %5
  %7 = load float, ptr %6, align 4
  %8 = fpext float %7 to double
  %9 = zext i16 %.sroa.0.0.copyload.i6 to i64
  %10 = getelementptr inbounds nuw [65536 x %"union.pxrInternal_v0_24__pxrReserved__::pxr_half::half::uif"], ptr @_ZN32pxrInternal_v0_24__pxrReserved__8pxr_half4half8_toFloatE, i64 0, i64 %9
  %11 = load float, ptr %10, align 4
  %12 = fpext float %11 to double
  %13 = fsub double %8, %12
  %14 = tail call double @llvm.fabs.f64(double %13)
  %15 = fcmp olt double %14, 1.000000e-02
  br i1 %15, label %.preheader, label %_ZN32pxrInternal_v0_24__pxrReserved__L8_IsCloseINS_7GfVec3hETnPNSt9enable_ifIXsr9GfIsGfVecIT_EE5valueEvE4typeELPv0EEEbRKS3_S9_.exit

.preheader:                                       ; preds = %2, %.preheader
  %.08.i = phi i64 [ %29, %.preheader ], [ 0, %2 ]
  %16 = getelementptr inbounds nuw [3 x %"class.pxrInternal_v0_24__pxrReserved__::pxr_half::half"], ptr %0, i64 0, i64 %.08.i
  %17 = getelementptr inbounds nuw [3 x %"class.pxrInternal_v0_24__pxrReserved__::pxr_half::half"], ptr %1, i64 0, i64 %.08.i
  %.val.i = load i16, ptr %16, align 2
  %.val7.i = load i16, ptr %17, align 2
  %18 = zext i16 %.val.i to i64
  %19 = getelementptr inbounds nuw [65536 x %"union.pxrInternal_v0_24__pxrReserved__::pxr_half::half::uif"], ptr @_ZN32pxrInternal_v0_24__pxrReserved__8pxr_half4half8_toFloatE, i64 0, i64 %18
  %20 = load float, ptr %19, align 4
  %21 = fpext float %20 to double
  %22 = zext i16 %.val7.i to i64
  %23 = getelementptr inbounds nuw [65536 x %"union.pxrInternal_v0_24__pxrReserved__::pxr_half::half::uif"], ptr @_ZN32pxrInternal_v0_24__pxrReserved__8pxr_half4half8_toFloatE, i64 0, i64 %22
  %24 = load float, ptr %23, align 4
  %25 = fpext float %24 to double
  %26 = fsub double %21, %25
  %27 = tail call double @llvm.fabs.f64(double %26)
  %28 = fcmp olt double %27, 1.000000e-02
  %29 = add nuw nsw i64 %.08.i, 1
  %exitcond.i = icmp ne i64 %29, 3
  %or.cond.not.i = select i1 %28, i1 %exitcond.i, i1 false
  br i1 %or.cond.not.i, label %.preheader, label %_ZN32pxrInternal_v0_24__pxrReserved__L8_IsCloseINS_7GfVec3hETnPNSt9enable_ifIXsr9GfIsGfVecIT_EE5valueEvE4typeELPv0EEEbRKS3_S9_.exit, !llvm.loop !18

_ZN32pxrInternal_v0_24__pxrReserved__L8_IsCloseINS_7GfVec3hETnPNSt9enable_ifIXsr9GfIsGfVecIT_EE5valueEvE4typeELPv0EEEbRKS3_S9_.exit: ; preds = %.preheader, %2
  %.0 = phi i1 [ false, %2 ], [ %28, %.preheader ]
  ret i1 %.0
}